; ModuleID = 'bench/openmpi/original/pnet_opa_component.ll'
source_filename = "bench/openmpi/original/pnet_opa_component.ll"
target datalayout = "e-m:e-p270:32:32-p271:32:32-p272:64:64-i64:64-i128:128-f80:128-n8:16:32:64-S128"
target triple = "x86_64-pc-linux-gnu"

%struct.pmix_pnet_opa_component_t = type { %struct.pmix_mca_base_component_2_1_0_t, ptr, ptr, ptr, ptr }
%struct.pmix_mca_base_component_2_1_0_t = type { i32, i32, i32, [16 x i8], i32, i32, i32, [32 x i8], i32, i32, i32, [64 x i8], i32, i32, i32, ptr, ptr, ptr, ptr, [32 x i8] }
%struct.pmix_globals_t = type { i32, %struct.pmix_proc, %struct.pmix_value, %struct.pmix_value, ptr, i32, i32, ptr, i32, i32, i32, i32, i32, ptr, ptr, i32, %struct.pmix_events_t, i8, i8, %struct.timeval, %struct.pmix_list_t, %struct.pmix_pointer_array_t, i32, i32, %struct.pmix_hotel_t, i8, %struct.pmix_list_t, i8, i8, i8, i64, %struct.pmix_list_t, %struct.pmix_topology_t, %struct.pmix_cpuset_t, i8, i8, %struct.pmix_iof_flags_t, %struct.pmix_keyindex_t }
%struct.pmix_proc = type { [256 x i8], i32 }
%struct.pmix_value = type { i16, %union.anon }
%union.anon = type { %struct.pmix_envar_t }
%struct.pmix_envar_t = type { ptr, ptr, i8 }
%struct.pmix_events_t = type { %struct.pmix_object_t, i64, ptr, ptr, %struct.pmix_list_t, %struct.pmix_list_t, %struct.pmix_list_t, %struct.pmix_list_t }
%struct.pmix_object_t = type { %union.pthread_mutex_t, ptr, i32, %struct.pmix_tma }
%union.pthread_mutex_t = type { %struct.__pthread_mutex_s }
%struct.__pthread_mutex_s = type { i32, i32, i32, i32, i32, i16, i16, %struct.__pthread_internal_list }
%struct.__pthread_internal_list = type { ptr, ptr }
%struct.pmix_tma = type { ptr, ptr, ptr, ptr, ptr, ptr, ptr, ptr }
%struct.timeval = type { i64, i64 }
%struct.pmix_pointer_array_t = type { %struct.pmix_object_t, i32, i32, i32, i32, i32, ptr, ptr }
%struct.pmix_hotel_t = type { %struct.pmix_object_t, i32, ptr, %struct.timeval, ptr, ptr, ptr, ptr, i32 }
%struct.pmix_list_t = type { %struct.pmix_object_t, %struct.pmix_list_item_t, i64 }
%struct.pmix_list_item_t = type { %struct.pmix_object_t, ptr, ptr, i32 }
%struct.pmix_topology_t = type { ptr, ptr }
%struct.pmix_cpuset_t = type { ptr, ptr }
%struct.pmix_iof_flags_t = type { i8, i8, i8, i8, i8, i8, i8, ptr, ptr, i8, i8, i8, i8, i8, i8 }
%struct.pmix_keyindex_t = type { %struct.pmix_object_t, ptr, i32 }
%struct.pmix_pnet_module_t = type { ptr, ptr, ptr, ptr, ptr, ptr, ptr, ptr, ptr, ptr, ptr, ptr, ptr, ptr }

@pmix_mca_pnet_opa_component = global %struct.pmix_pnet_opa_component_t { %struct.pmix_mca_base_component_2_1_0_t { i32 2, i32 1, i32 0, [16 x i8] c"pmix\00\00\00\00\00\00\00\00\00\00\00\00", i32 6, i32 0, i32 0, [32 x i8] c"pnet\00\00\00\00\00\00\00\00\00\00\00\00\00\00\00\00\00\00\00\00\00\00\00\00\00\00\00\00", i32 1, i32 0, i32 0, [64 x i8] c"opa\00\00\00\00\00\00\00\00\00\00\00\00\00\00\00\00\00\00\00\00\00\00\00\00\00\00\00\00\00\00\00\00\00\00\00\00\00\00\00\00\00\00\00\00\00\00\00\00\00\00\00\00\00\00\00\00\00\00\00\00\00", i32 6, i32 0, i32 0, ptr @component_open, ptr @component_close, ptr @component_query, ptr @component_register, [32 x i8] zeroinitializer }, ptr null, ptr null, ptr null, ptr null }, align 8
@.str = private unnamed_addr constant [13 x i8] c"HFI_*,PSM2_*\00", align 1
@.str.1 = private unnamed_addr constant [15 x i8] c"include_envars\00", align 1
@.str.2 = private unnamed_addr constant [66 x i8] c"Comma-delimited list of envars to harvest ('*' and '?' supported)\00", align 1
@.str.3 = private unnamed_addr constant [15 x i8] c"exclude_envars\00", align 1
@.str.4 = private unnamed_addr constant [66 x i8] c"Comma-delimited list of envars to exclude ('*' and '?' supported)\00", align 1
@pmix_globals = external global %struct.pmix_globals_t, align 8
@pmix_opa_module = external global %struct.pmix_pnet_module_t, align 8

; Function Attrs: nounwind uwtable
define internal i32 @component_open() #0 {
  %1 = tail call i32 @pmix_hwloc_check_vendor(ptr noundef nonnull getelementptr inbounds nuw (i8, ptr @pmix_globals, i64 2856), i16 noundef zeroext -32634, i16 noundef zeroext 520) #4
  ret i32 %1
}

; Function Attrs: mustprogress nofree norecurse nosync nounwind willreturn memory(none) uwtable
define internal noundef i32 @component_close() #1 {
  ret i32 0
}

; Function Attrs: mustprogress nofree norecurse nosync nounwind willreturn memory(argmem: write) uwtable
define internal noundef i32 @component_query(ptr noundef writeonly captures(none) initializes((0, 8)) %0, ptr noundef writeonly captures(none) initializes((0, 4)) %1) #2 {
  store i32 10, ptr %1, align 4, !tbaa !3
  store ptr @pmix_opa_module, ptr %0, align 8, !tbaa !7
  ret i32 0
}

; Function Attrs: nounwind uwtable
define internal noundef i32 @component_register() #0 {
  store ptr @.str, ptr getelementptr inbounds nuw (i8, ptr @pmix_mca_pnet_opa_component, i64 224), align 8, !tbaa !10
  %1 = tail call i32 @pmix_mca_base_component_var_register(ptr noundef nonnull @pmix_mca_pnet_opa_component, ptr noundef nonnull @.str.1, ptr noundef nonnull @.str.2, i32 noundef 5, ptr noundef nonnull getelementptr inbounds nuw (i8, ptr @pmix_mca_pnet_opa_component, i64 224)) #4
  %2 = load ptr, ptr getelementptr inbounds nuw (i8, ptr @pmix_mca_pnet_opa_component, i64 224), align 8, !tbaa !10
  %.not = icmp eq ptr %2, null
  br i1 %.not, label %5, label %3

3:                                                ; preds = %0
  %4 = tail call ptr @PMIx_Argv_split(ptr noundef nonnull %2, i32 noundef 44) #4
  store ptr %4, ptr getelementptr inbounds nuw (i8, ptr @pmix_mca_pnet_opa_component, i64 240), align 8, !tbaa !15
  br label %5

5:                                                ; preds = %3, %0
  store ptr null, ptr getelementptr inbounds nuw (i8, ptr @pmix_mca_pnet_opa_component, i64 232), align 8, !tbaa !16
  %6 = tail call i32 @pmix_mca_base_component_var_register(ptr noundef nonnull @pmix_mca_pnet_opa_component, ptr noundef nonnull @.str.3, ptr noundef nonnull @.str.4, i32 noundef 5, ptr noundef nonnull getelementptr inbounds nuw (i8, ptr @pmix_mca_pnet_opa_component, i64 232)) #4
  %7 = load ptr, ptr getelementptr inbounds nuw (i8, ptr @pmix_mca_pnet_opa_component, i64 232), align 8, !tbaa !16
  %.not3 = icmp eq ptr %7, null
  br i1 %.not3, label %10, label %8

8:                                                ; preds = %5
  %9 = tail call ptr @PMIx_Argv_split(ptr noundef nonnull %7, i32 noundef 44) #4
  store ptr %9, ptr getelementptr inbounds nuw (i8, ptr @pmix_mca_pnet_opa_component, i64 248), align 8, !tbaa !17
  br label %10

10:                                               ; preds = %8, %5
  ret i32 0
}

declare i32 @pmix_mca_base_component_var_register(ptr noundef, ptr noundef, ptr noundef, i32 noundef, ptr noundef) local_unnamed_addr #3

declare ptr @PMIx_Argv_split(ptr noundef, i32 noundef) local_unnamed_addr #3

declare i32 @pmix_hwloc_check_vendor(ptr noundef, i16 noundef zeroext, i16 noundef zeroext) local_unnamed_addr #3


!llvm.module.flags = !{!0, !1, !2}

!0 = !{i32 1, !"wchar_size", i32 4}
!1 = !{i32 8, !"PIC Level", i32 2}
!2 = !{i32 7, !"uwtable", i32 2}
!3 = !{!4, !4, i64 0}
!4 = !{!"int", !5, i64 0}
!5 = !{!"omnipotent char", !6, i64 0}
!6 = !{!"Simple C/C++ TBAA"}
!7 = !{!8, !8, i64 0}
!8 = !{!"p1 _ZTS28pmix_mca_base_module_2_0_0_t", !9, i64 0}
!9 = !{!"any pointer", !5, i64 0}
!10 = !{!11, !13, i64 224}
!11 = !{!"", !12, i64 0, !13, i64 224, !13, i64 232, !14, i64 240, !14, i64 248}
!12 = !{!"pmix_mca_base_component_2_1_0_t", !4, i64 0, !4, i64 4, !4, i64 8, !5, i64 12, !4, i64 28, !4, i64 32, !4, i64 36, !5, i64 40, !4, i64 72, !4, i64 76, !4, i64 80, !5, i64 84, !4, i64 148, !4, i64 152, !4, i64 156, !9, i64 160, !9, i64 168, !9, i64 176, !9, i64 184, !5, i64 192}
!13 = !{!"p1 omnipotent char", !9, i64 0}
!14 = !{!"p2 omnipotent char", !9, i64 0}
!15 = !{!11, !14, i64 240}
!16 = !{!11, !13, i64 232}
!17 = !{!11, !14, i64 248}
